; ModuleID = 'source-C-CXX/19/1339.c'
source_filename = "source-C-CXX/19/1339.c"
target datalayout = "e-m:e-p270:32:32-p271:32:32-p272:64:64-i64:64-f80:128-n8:16:32:64-S128"
target triple = "x86_64-pc-linux-gnu"

@.str = private unnamed_addr constant [5 x i8] c"%s%s\00", align 1
@.str.2 = private unnamed_addr constant [3 x i8] c"%s\00", align 1

; Function Attrs: nofree nounwind sspstrong uwtable
define dso_local i32 @main() local_unnamed_addr #0 {
  %1 = alloca [11 x i8], align 1
  %2 = alloca [4 x i8], align 1
  %3 = getelementptr inbounds [11 x i8], [11 x i8]* %1, i64 0, i64 0
  call void @llvm.lifetime.start.p0i8(i64 11, i8* nonnull %3) #5
  %4 = getelementptr inbounds [4 x i8], [4 x i8]* %2, i64 0, i64 0
  call void @llvm.lifetime.start.p0i8(i64 4, i8* nonnull %4) #5
  %5 = call i32 (i8*, ...) @__isoc99_scanf(i8* getelementptr inbounds ([5 x i8], [5 x i8]* @.str, i64 0, i64 0), i8* nonnull %3, i8* nonnull %4)
  %6 = icmp eq i32 %5, -1
  br i1 %6, label %58, label %7

7:                                                ; preds = %0, %55
  %8 = call i64 @strlen(i8* noundef nonnull %3) #6
  %9 = trunc i64 %8 to i32
  %10 = icmp sgt i32 %9, 0
  br i1 %10, label %11, label %55

11:                                               ; preds = %7
  %12 = and i64 %8, 4294967295
  br label %13

13:                                               ; preds = %11, %25
  %14 = phi i64 [ 0, %11 ], [ %26, %25 ]
  %15 = getelementptr inbounds [11 x i8], [11 x i8]* %1, i64 0, i64 %14
  %16 = load i8, i8* %15, align 1, !tbaa !5
  br label %19

17:                                               ; preds = %19
  %18 = icmp eq i64 %24, %12
  br i1 %18, label %28, label %19, !llvm.loop !8

19:                                               ; preds = %13, %17
  %20 = phi i64 [ 0, %13 ], [ %24, %17 ]
  %21 = getelementptr inbounds [11 x i8], [11 x i8]* %1, i64 0, i64 %20
  %22 = load i8, i8* %21, align 1, !tbaa !5
  %23 = icmp slt i8 %16, %22
  %24 = add nuw nsw i64 %20, 1
  br i1 %23, label %25, label %17

25:                                               ; preds = %19
  %26 = add nuw nsw i64 %14, 1
  %27 = icmp eq i64 %26, %12
  br i1 %27, label %55, label %13, !llvm.loop !10

28:                                               ; preds = %17
  %29 = trunc i64 %14 to i32
  %30 = add nuw nsw i32 %29, 1
  %31 = zext i32 %30 to i64
  br label %32

32:                                               ; preds = %28, %32
  %33 = phi i64 [ 0, %28 ], [ %38, %32 ]
  %34 = getelementptr inbounds [11 x i8], [11 x i8]* %1, i64 0, i64 %33
  %35 = load i8, i8* %34, align 1, !tbaa !5
  %36 = sext i8 %35 to i32
  %37 = call i32 @putchar(i32 %36)
  %38 = add nuw nsw i64 %33, 1
  %39 = icmp eq i64 %38, %31
  br i1 %39, label %40, label %32, !llvm.loop !11

40:                                               ; preds = %32
  %41 = call i32 (i8*, ...) @printf(i8* nonnull dereferenceable(1) getelementptr inbounds ([3 x i8], [3 x i8]* @.str.2, i64 0, i64 0), i8* nonnull %4)
  %42 = icmp slt i32 %30, %9
  br i1 %42, label %43, label %53

43:                                               ; preds = %40, %43
  %44 = phi i64 [ %50, %43 ], [ %31, %40 ]
  %45 = phi i32 [ %51, %43 ], [ %30, %40 ]
  %46 = getelementptr inbounds [11 x i8], [11 x i8]* %1, i64 0, i64 %44
  %47 = load i8, i8* %46, align 1, !tbaa !5
  %48 = sext i8 %47 to i32
  %49 = call i32 @putchar(i32 %48)
  %50 = add nuw nsw i64 %44, 1
  %51 = add nuw nsw i32 %45, 1
  %52 = icmp eq i32 %51, %9
  br i1 %52, label %53, label %43, !llvm.loop !12

53:                                               ; preds = %43, %40
  %54 = call i32 @putchar(i32 10)
  br label %55

55:                                               ; preds = %25, %7, %53
  %56 = call i32 (i8*, ...) @__isoc99_scanf(i8* getelementptr inbounds ([5 x i8], [5 x i8]* @.str, i64 0, i64 0), i8* nonnull %3, i8* nonnull %4)
  %57 = icmp eq i32 %56, -1
  br i1 %57, label %58, label %7, !llvm.loop !13

58:                                               ; preds = %55, %0
  call void @llvm.lifetime.end.p0i8(i64 4, i8* nonnull %4) #5
  call void @llvm.lifetime.end.p0i8(i64 11, i8* nonnull %3) #5
  ret i32 0
}

; Function Attrs: argmemonly mustprogress nofree nosync nounwind willreturn
declare void @llvm.lifetime.start.p0i8(i64 immarg, i8* nocapture) #1

; Function Attrs: nofree nounwind
declare noundef i32 @__isoc99_scanf(i8* nocapture noundef readonly, ...) local_unnamed_addr #2

; Function Attrs: argmemonly mustprogress nofree nounwind readonly willreturn
declare i64 @strlen(i8* nocapture) local_unnamed_addr #3

; Function Attrs: nofree nounwind
declare noundef i32 @printf(i8* nocapture noundef readonly, ...) local_unnamed_addr #2

; Function Attrs: argmemonly mustprogress nofree nosync nounwind willreturn
declare void @llvm.lifetime.end.p0i8(i64 immarg, i8* nocapture) #1

; Function Attrs: nofree nounwind
declare noundef i32 @putchar(i32 noundef) local_unnamed_addr #4


!llvm.module.flags = !{!0, !1, !2, !3}
!llvm.ident = !{!4}

!0 = !{i32 1, !"wchar_size", i32 4}
!1 = !{i32 7, !"PIC Level", i32 2}
!2 = !{i32 7, !"PIE Level", i32 2}
!3 = !{i32 7, !"uwtable", i32 1}
!4 = !{!"clang version 13.0.0"}
!5 = !{!6, !6, i64 0}
!6 = !{!"omnipotent char", !7, i64 0}
!7 = !{!"Simple C/C++ TBAA"}
!8 = distinct !{!8, !9}
!9 = !{!"llvm.loop.mustprogress"}
!10 = distinct !{!10, !9}
!11 = distinct !{!11, !9}
!12 = distinct !{!12, !9}
!13 = distinct !{!13, !9}
